; Function Attrs: nounwind uwtable
define i32 @test_flush_tapout() local_unnamed_addr #0 {
  %1 = load ptr, ptr @io_lock, align 8, !tbaa !13
  %2 = tail call i32 @CRYPTO_THREAD_write_lock(ptr noundef %1) #3
  %3 = icmp sgt i32 %2, 0
  br i1 %3, label %test_io_lock.exit, label %4

4:                                                ; preds = %0
  tail call void @OPENSSL_die(ptr noundef nonnull @.str.6, ptr noundef nonnull @.str.2, i32 noundef 191) #4
  unreachable

test_io_lock.exit:                                ; preds = %0
  %5 = load ptr, ptr @tap_out, align 8, !tbaa !12
  %6 = tail call i64 @BIO_ctrl(ptr noundef %5, i32 noundef 11, i64 noundef 0, ptr noundef null) #3
  %7 = trunc i64 %6 to i32
  %8 = load ptr, ptr @io_lock, align 8, !tbaa !13
  %9 = tail call i32 @CRYPTO_THREAD_unlock(ptr noundef %8) #3
  ret i32 %7
}